; Function Attrs: mustprogress nofree nounwind willreturn memory(readwrite, inaccessiblemem: none) uwtable
define range(i32 0, 2) i32 @tng_residue_name_get(ptr noundef readnone captures(none) %0, ptr noundef readonly captures(none) %1, ptr noundef %2, i32 noundef %3) local_unnamed_addr #1 {
  %5 = getelementptr inbounds nuw i8, ptr %1, i64 16
  %6 = load ptr, ptr %5, align 8, !tbaa !61
  %7 = add nsw i32 %3, -1
  %8 = sext i32 %7 to i64
  %9 = tail call ptr @strncpy(ptr noundef %2, ptr noundef %6, i64 noundef %8) #26
  %10 = getelementptr inbounds i8, ptr %2, i64 %8
  store i8 0, ptr %10, align 1, !tbaa !13
  %11 = load ptr, ptr %5, align 8, !tbaa !61
  %12 = tail call i64 @strlen(ptr noundef nonnull dereferenceable(1) %11) #27
  %13 = zext i32 %7 to i64
  %14 = icmp ugt i64 %12, %13
  %. = zext i1 %14 to i32
  ret i32 %.
}